; Function Attrs: mustprogress uwtable
define hidden noundef range(i32 -1, 1) i32 @_ZN3vas2ot7Tracker12RemoveObjectEi(ptr noundef nonnull align 8 dereferenceable(72) %0, i32 noundef %1) local_unnamed_addr #0 align 2 {
  %3 = icmp eq i32 %1, 0
  br i1 %3, label %.loopexit, label %4

4:                                                ; preds = %2
  %5 = getelementptr inbounds i8, ptr %0, i64 48
  %6 = load ptr, ptr %5, align 8
  %7 = getelementptr inbounds i8, ptr %0, i64 56
  %8 = load ptr, ptr %7, align 8
  %.not10 = icmp eq ptr %6, %8
  br i1 %.not10, label %.loopexit, label %.lr.ph

.lr.ph:                                           ; preds = %4, %19
  %.sroa.05.011 = phi ptr [ %20, %19 ], [ %6, %4 ]
  %9 = load ptr, ptr %.sroa.05.011, align 8
  %10 = getelementptr inbounds i8, ptr %9, i64 8
  %11 = load i32, ptr %10, align 8
  %12 = icmp eq i32 %11, %1
  br i1 %12, label %13, label %19

13:                                               ; preds = %.lr.ph
  %14 = ptrtoint ptr %.sroa.05.011 to i64
  %15 = ptrtoint ptr %6 to i64
  %16 = sub i64 %14, %15
  %17 = getelementptr inbounds i8, ptr %6, i64 %16
  %18 = tail call ptr @_ZNSt6vectorISt10shared_ptrIN3vas2ot8TrackletEESaIS4_EE8_M_eraseEN9__gnu_cxx17__normal_iteratorIPS4_S6_EE(ptr noundef nonnull align 8 dereferenceable(24) %5, ptr %17)
  br label %.loopexit

19:                                               ; preds = %.lr.ph
  %20 = getelementptr inbounds i8, ptr %.sroa.05.011, i64 16
  %.not = icmp eq ptr %20, %8
  br i1 %.not, label %.loopexit, label %.lr.ph, !llvm.loop !6

.loopexit:                                        ; preds = %19, %4, %2, %13
  %.0 = phi i32 [ 0, %13 ], [ -1, %2 ], [ -1, %4 ], [ -1, %19 ]
  ret i32 %.0
}